target datalayout = "e-m:e-p270:32:32-p271:32:32-p272:64:64-i64:64-i128:128-f80:128-n8:16:32:64-S128"
target triple = "x86_64-pc-linux-gnu"

@VP8SSIMGetClipped = external global ptr, align 8
@VP8SSIMGet = external global ptr, align 8

; Function Attrs: nounwind uwtable
define internal double @AccumulateSSIM(ptr noundef %0, i32 noundef %1, ptr noundef %2, i32 noundef %3, i32 noundef %4, i32 noundef %5) #0 {
  %7 = alloca ptr, align 8
  %8 = alloca i32, align 4
  %9 = alloca ptr, align 8
  %10 = alloca i32, align 4
  %11 = alloca i32, align 4
  %12 = alloca i32, align 4
  %13 = alloca i32, align 4
  %14 = alloca i32, align 4
  %15 = alloca i32, align 4
  %16 = alloca i32, align 4
  %17 = alloca i32, align 4
  %18 = alloca i32, align 4
  %19 = alloca double, align 8
  %20 = alloca i32, align 4
  %21 = alloca i32, align 4
  store ptr %0, ptr %7, align 8
  store i32 %1, ptr %8, align 4
  store ptr %2, ptr %9, align 8
  store i32 %3, ptr %10, align 4
  store i32 %4, ptr %11, align 4
  store i32 %5, ptr %12, align 4
  %22 = load i32, ptr %11, align 4
  %23 = icmp slt i32 %22, 3
  br i1 %23, label %24, label %26

24:                                               ; preds = %6
  %25 = load i32, ptr %11, align 4
  br label %27

26:                                               ; preds = %6
  br label %27

27:                                               ; preds = %26, %24
  %28 = phi i32 [ %25, %24 ], [ 3, %26 ]
  store i32 %28, ptr %13, align 4
  %29 = load i32, ptr %11, align 4
  %30 = sub nsw i32 %29, 3
  %31 = sub nsw i32 %30, 1
  store i32 %31, ptr %14, align 4
  %32 = load i32, ptr %12, align 4
  %33 = icmp slt i32 %32, 3
  br i1 %33, label %34, label %36

34:                                               ; preds = %27
  %35 = load i32, ptr %12, align 4
  br label %37

36:                                               ; preds = %27
  br label %37

37:                                               ; preds = %36, %34
  %38 = phi i32 [ %35, %34 ], [ 3, %36 ]
  store i32 %38, ptr %15, align 4
  %39 = load i32, ptr %12, align 4
  %40 = sub nsw i32 %39, 3
  %41 = sub nsw i32 %40, 1
  store i32 %41, ptr %16, align 4
  store double 0.000000e+00, ptr %19, align 8
  store i32 0, ptr %18, align 4
  br label %42

42:                                               ; preds = %68, %37
  %43 = load i32, ptr %18, align 4
  %44 = load i32, ptr %15, align 4
  %45 = icmp slt i32 %43, %44
  br i1 %45, label %46, label %71

46:                                               ; preds = %42
  store i32 0, ptr %17, align 4
  br label %47

47:                                               ; preds = %64, %46
  %48 = load i32, ptr %17, align 4
  %49 = load i32, ptr %11, align 4
  %50 = icmp slt i32 %48, %49
  br i1 %50, label %51, label %67

51:                                               ; preds = %47
  %52 = load ptr, ptr @VP8SSIMGetClipped, align 8
  %53 = load ptr, ptr %7, align 8
  %54 = load i32, ptr %8, align 4
  %55 = load ptr, ptr %9, align 8
  %56 = load i32, ptr %10, align 4
  %57 = load i32, ptr %17, align 4
  %58 = load i32, ptr %18, align 4
  %59 = load i32, ptr %11, align 4
  %60 = load i32, ptr %12, align 4
  %61 = call double %52(ptr noundef %53, i32 noundef %54, ptr noundef %55, i32 noundef %56, i32 noundef %57, i32 noundef %58, i32 noundef %59, i32 noundef %60)
  %62 = load double, ptr %19, align 8
  %63 = fadd double %62, %61
  store double %63, ptr %19, align 8
  br label %64

64:                                               ; preds = %51
  %65 = load i32, ptr %17, align 4
  %66 = add nsw i32 %65, 1
  store i32 %66, ptr %17, align 4
  br label %47, !llvm.loop !8

67:                                               ; preds = %47
  br label %68

68:                                               ; preds = %67
  %69 = load i32, ptr %18, align 4
  %70 = add nsw i32 %69, 1
  store i32 %70, ptr %18, align 4
  br label %42, !llvm.loop !9

71:                                               ; preds = %42
  br label %72

72:                                               ; preds = %156, %71
  %73 = load i32, ptr %18, align 4
  %74 = load i32, ptr %16, align 4
  %75 = icmp slt i32 %73, %74
  br i1 %75, label %76, label %159

76:                                               ; preds = %72
  store i32 0, ptr %17, align 4
  br label %77

77:                                               ; preds = %94, %76
  %78 = load i32, ptr %17, align 4
  %79 = load i32, ptr %13, align 4
  %80 = icmp slt i32 %78, %79
  br i1 %80, label %81, label %97

81:                                               ; preds = %77
  %82 = load ptr, ptr @VP8SSIMGetClipped, align 8
  %83 = load ptr, ptr %7, align 8
  %84 = load i32, ptr %8, align 4
  %85 = load ptr, ptr %9, align 8
  %86 = load i32, ptr %10, align 4
  %87 = load i32, ptr %17, align 4
  %88 = load i32, ptr %18, align 4
  %89 = load i32, ptr %11, align 4
  %90 = load i32, ptr %12, align 4
  %91 = call double %82(ptr noundef %83, i32 noundef %84, ptr noundef %85, i32 noundef %86, i32 noundef %87, i32 noundef %88, i32 noundef %89, i32 noundef %90)
  %92 = load double, ptr %19, align 8
  %93 = fadd double %92, %91
  store double %93, ptr %19, align 8
  br label %94

94:                                               ; preds = %81
  %95 = load i32, ptr %17, align 4
  %96 = add nsw i32 %95, 1
  store i32 %96, ptr %17, align 4
  br label %77, !llvm.loop !10

97:                                               ; preds = %77
  br label %98

98:                                               ; preds = %131, %97
  %99 = load i32, ptr %17, align 4
  %100 = load i32, ptr %14, align 4
  %101 = icmp slt i32 %99, %100
  br i1 %101, label %102, label %134

102:                                              ; preds = %98
  %103 = load i32, ptr %17, align 4
  %104 = sub nsw i32 %103, 3
  %105 = load i32, ptr %18, align 4
  %106 = sub nsw i32 %105, 3
  %107 = load i32, ptr %8, align 4
  %108 = mul nsw i32 %106, %107
  %109 = add nsw i32 %104, %108
  store i32 %109, ptr %20, align 4
  %110 = load i32, ptr %17, align 4
  %111 = sub nsw i32 %110, 3
  %112 = load i32, ptr %18, align 4
  %113 = sub nsw i32 %112, 3
  %114 = load i32, ptr %10, align 4
  %115 = mul nsw i32 %113, %114
  %116 = add nsw i32 %111, %115
  store i32 %116, ptr %21, align 4
  %117 = load ptr, ptr @VP8SSIMGet, align 8
  %118 = load ptr, ptr %7, align 8
  %119 = load i32, ptr %20, align 4
  %120 = sext i32 %119 to i64
  %121 = getelementptr inbounds i8, ptr %118, i64 %120
  %122 = load i32, ptr %8, align 4
  %123 = load ptr, ptr %9, align 8
  %124 = load i32, ptr %21, align 4
  %125 = sext i32 %124 to i64
  %126 = getelementptr inbounds i8, ptr %123, i64 %125
  %127 = load i32, ptr %10, align 4
  %128 = call double %117(ptr noundef %121, i32 noundef %122, ptr noundef %126, i32 noundef %127)
  %129 = load double, ptr %19, align 8
  %130 = fadd double %129, %128
  store double %130, ptr %19, align 8
  br label %131

131:                                              ; preds = %102
  %132 = load i32, ptr %17, align 4
  %133 = add nsw i32 %132, 1
  store i32 %133, ptr %17, align 4
  br label %98, !llvm.loop !11

134:                                              ; preds = %98
  br label %135

135:                                              ; preds = %152, %134
  %136 = load i32, ptr %17, align 4
  %137 = load i32, ptr %11, align 4
  %138 = icmp slt i32 %136, %137
  br i1 %138, label %139, label %155

139:                                              ; preds = %135
  %140 = load ptr, ptr @VP8SSIMGetClipped, align 8
  %141 = load ptr, ptr %7, align 8
  %142 = load i32, ptr %8, align 4
  %143 = load ptr, ptr %9, align 8
  %144 = load i32, ptr %10, align 4
  %145 = load i32, ptr %17, align 4
  %146 = load i32, ptr %18, align 4
  %147 = load i32, ptr %11, align 4
  %148 = load i32, ptr %12, align 4
  %149 = call double %140(ptr noundef %141, i32 noundef %142, ptr noundef %143, i32 noundef %144, i32 noundef %145, i32 noundef %146, i32 noundef %147, i32 noundef %148)
  %150 = load double, ptr %19, align 8
  %151 = fadd double %150, %149
  store double %151, ptr %19, align 8
  br label %152

152:                                              ; preds = %139
  %153 = load i32, ptr %17, align 4
  %154 = add nsw i32 %153, 1
  store i32 %154, ptr %17, align 4
  br label %135, !llvm.loop !12

155:                                              ; preds = %135
  br label %156

156:                                              ; preds = %155
  %157 = load i32, ptr %18, align 4
  %158 = add nsw i32 %157, 1
  store i32 %158, ptr %18, align 4
  br label %72, !llvm.loop !13

159:                                              ; preds = %72
  br label %160

160:                                              ; preds = %186, %159
  %161 = load i32, ptr %18, align 4
  %162 = load i32, ptr %12, align 4
  %163 = icmp slt i32 %161, %162
  br i1 %163, label %164, label %189

164:                                              ; preds = %160
  store i32 0, ptr %17, align 4
  br label %165

165:                                              ; preds = %182, %164
  %166 = load i32, ptr %17, align 4
  %167 = load i32, ptr %11, align 4
  %168 = icmp slt i32 %166, %167
  br i1 %168, label %169, label %185

169:                                              ; preds = %165
  %170 = load ptr, ptr @VP8SSIMGetClipped, align 8
  %171 = load ptr, ptr %7, align 8
  %172 = load i32, ptr %8, align 4
  %173 = load ptr, ptr %9, align 8
  %174 = load i32, ptr %10, align 4
  %175 = load i32, ptr %17, align 4
  %176 = load i32, ptr %18, align 4
  %177 = load i32, ptr %11, align 4
  %178 = load i32, ptr %12, align 4
  %179 = call double %170(ptr noundef %171, i32 noundef %172, ptr noundef %173, i32 noundef %174, i32 noundef %175, i32 noundef %176, i32 noundef %177, i32 noundef %178)
  %180 = load double, ptr %19, align 8
  %181 = fadd double %180, %179
  store double %181, ptr %19, align 8
  br label %182

182:                                              ; preds = %169
  %183 = load i32, ptr %17, align 4
  %184 = add nsw i32 %183, 1
  store i32 %184, ptr %17, align 4
  br label %165, !llvm.loop !14

185:                                              ; preds = %165
  br label %186

186:                                              ; preds = %185
  %187 = load i32, ptr %18, align 4
  %188 = add nsw i32 %187, 1
  store i32 %188, ptr %18, align 4
  br label %160, !llvm.loop !15

189:                                              ; preds = %160
  %190 = load double, ptr %19, align 8
  ret double %190
}